; Function Attrs: mustprogress uwtable
define internal void @_ZN12_GLOBAL__N_110smt_solver11updt_paramsERK10params_ref(ptr noundef nonnull align 8 dereferenceable(1808) %0, ptr noundef nonnull align 8 dereferenceable(8) %1) unnamed_addr #3 align 2 personality ptr @__gxx_personality_v0 {
  %3 = alloca %struct.smt_params_helper, align 8
  tail call void @_ZN6solver11updt_paramsERK10params_ref(ptr noundef nonnull align 8 dereferenceable(96) %0, ptr noundef nonnull align 8 dereferenceable(8) %1)
  %4 = getelementptr inbounds nuw i8, ptr %0, i64 120
  %5 = getelementptr inbounds nuw i8, ptr %0, i64 80
  tail call void @_ZN10smt_params11updt_paramsERK10params_ref(ptr noundef nonnull align 8 dereferenceable(808) %4, ptr noundef nonnull align 8 dereferenceable(8) %5)
  %6 = getelementptr inbounds nuw i8, ptr %0, i64 928
  tail call void @_ZN3smt6kernel11updt_paramsERK10params_ref(ptr noundef nonnull align 8 dereferenceable(8) %6, ptr noundef nonnull align 8 dereferenceable(8) %5)
  call void @llvm.lifetime.start.p0(i64 16, ptr nonnull %3) #23
  store ptr %5, ptr %3, align 8, !tbaa !267
  %7 = getelementptr inbounds nuw i8, ptr %3, i64 8
  call void @_ZN7gparams10get_moduleEPKc(ptr dead_on_unwind nonnull writable sret(%class.params_ref) align 8 %7, ptr noundef nonnull @.str.6)
  %8 = load ptr, ptr %3, align 8, !tbaa !269
  %9 = invoke noundef zeroext i1 @_ZNK10params_ref8get_boolEPKcRKS_b(ptr noundef nonnull align 8 dereferenceable(8) %8, ptr noundef nonnull @.str.11, ptr noundef nonnull align 8 dereferenceable(8) %7, i1 noundef zeroext false)
          to label %_ZNK17smt_params_helper20core_extend_patternsEv.exit unwind label %19

_ZNK17smt_params_helper20core_extend_patternsEv.exit: ; preds = %2
  %10 = getelementptr inbounds nuw i8, ptr %0, i64 953
  %11 = zext i1 %9 to i8
  store i8 %11, ptr %10, align 1, !tbaa !277
  %12 = load ptr, ptr %3, align 8, !tbaa !269
  %13 = invoke noundef i32 @_ZNK10params_ref8get_uintEPKcRKS_j(ptr noundef nonnull align 8 dereferenceable(8) %12, ptr noundef nonnull @.str.12, ptr noundef nonnull align 8 dereferenceable(8) %7, i32 noundef -1)
          to label %_ZNK17smt_params_helper33core_extend_patterns_max_distanceEv.exit unwind label %19

_ZNK17smt_params_helper33core_extend_patterns_max_distanceEv.exit: ; preds = %_ZNK17smt_params_helper20core_extend_patternsEv.exit
  %14 = getelementptr inbounds nuw i8, ptr %0, i64 956
  store i32 %13, ptr %14, align 4, !tbaa !11
  %15 = load ptr, ptr %3, align 8, !tbaa !269
  %16 = invoke noundef zeroext i1 @_ZNK10params_ref8get_boolEPKcRKS_b(ptr noundef nonnull align 8 dereferenceable(8) %15, ptr noundef nonnull @.str.13, ptr noundef nonnull align 8 dereferenceable(8) %7, i1 noundef zeroext false)
          to label %_ZNK17smt_params_helper29core_extend_nonlocal_patternsEv.exit unwind label %19

_ZNK17smt_params_helper29core_extend_nonlocal_patternsEv.exit: ; preds = %_ZNK17smt_params_helper33core_extend_patterns_max_distanceEv.exit
  %17 = getelementptr inbounds nuw i8, ptr %0, i64 960
  %18 = zext i1 %16 to i8
  store i8 %18, ptr %17, align 8, !tbaa !75
  call void @_ZN10params_refD1Ev(ptr noundef nonnull align 8 dereferenceable(8) %7) #23
  call void @llvm.lifetime.end.p0(i64 16, ptr nonnull %3) #23
  ret void

19:                                               ; preds = %_ZNK17smt_params_helper33core_extend_patterns_max_distanceEv.exit, %_ZNK17smt_params_helper20core_extend_patternsEv.exit, %2
  %20 = landingpad { ptr, i32 }
          cleanup
  call void @_ZN10params_refD1Ev(ptr noundef nonnull align 8 dereferenceable(8) %7) #23
  call void @llvm.lifetime.end.p0(i64 16, ptr nonnull %3) #23
  resume { ptr, i32 } %20
}